; Function Attrs: mustprogress uwtable
define internal noundef ptr @_ZL26pj_healpix_data_destructorP8PJconstsi(ptr noundef %0, i32 noundef %1) #0 {
  %3 = icmp eq ptr %0, null
  br i1 %3, label %12, label %4

4:                                                ; preds = %2
  %5 = getelementptr inbounds nuw i8, ptr %0, i64 88
  %6 = load ptr, ptr %5, align 8, !tbaa !40
  %7 = icmp eq ptr %6, null
  br i1 %7, label %.sink.split, label %8

8:                                                ; preds = %4
  %9 = getelementptr inbounds nuw i8, ptr %6, i64 24
  %10 = load ptr, ptr %9, align 8, !tbaa !48
  tail call void @free(ptr noundef %10) #11
  br label %.sink.split

.sink.split:                                      ; preds = %4, %8
  %11 = tail call noundef ptr @_Z21pj_default_destructorP8PJconstsi(ptr noundef nonnull %0, i32 noundef %1)
  br label %12

12:                                               ; preds = %.sink.split, %2
  %.0 = phi ptr [ null, %2 ], [ %11, %.sink.split ]
  ret ptr %.0
}